target datalayout = "e-m:e-p270:32:32-p271:32:32-p272:64:64-i64:64-i128:128-f80:128-n8:16:32:64-S128"
target triple = "x86_64-unknown-linux-gnu"

%"struct.OpenImageIO_v2_6_0::ROI" = type { i32, i32, i32, i32, i32, i32, i32, i32 }
%class.anon = type { ptr }

; Function Attrs: mustprogress nounwind uwtable
define linkonce_odr hidden noundef i32 @_ZNK18OpenImageIO_v2_6_03ROI5widthEv(ptr noundef nonnull align 4 dereferenceable(32) %this) #4 comdat align 2 {
entry:
  %this.addr = alloca ptr, align 8
  store ptr %this, ptr %this.addr, align 8
  %this1 = load ptr, ptr %this.addr, align 8
  %xend = getelementptr inbounds %"struct.OpenImageIO_v2_6_0::ROI", ptr %this1, i32 0, i32 1
  %0 = load i32, ptr %xend, align 4
  %xbegin = getelementptr inbounds %"struct.OpenImageIO_v2_6_0::ROI", ptr %this1, i32 0, i32 0
  %1 = load i32, ptr %xbegin, align 4
  %sub = sub nsw i32 %0, %1
  ret i32 %sub
}

; Function Attrs: mustprogress uwtable
define internal void @"_ZZN18OpenImageIO_v2_6_012ImageBufAlgo4zeroERNS_8ImageBufENS_3ROIEiENK3$_0clES3_"(ptr noundef nonnull align 8 dereferenceable(8) %this, ptr noundef byval(%"struct.OpenImageIO_v2_6_0::ROI") align 8 %roi) #6 align 2 {
entry:
  %this.addr = alloca ptr, align 8
  %size = alloca i64, align 8
  %z = alloca i32, align 4
  %y = alloca i32, align 4
  store ptr %this, ptr %this.addr, align 8
  %this1 = load ptr, ptr %this.addr, align 8
  %0 = getelementptr inbounds %class.anon, ptr %this1, i32 0, i32 0
  %1 = load ptr, ptr %0, align 8
  %call = call noundef nonnull align 8 dereferenceable(160) ptr @_ZNK18OpenImageIO_v2_6_08ImageBuf4specEv(ptr noundef nonnull align 8 dereferenceable(16) %1)
  %call2 = call noundef i64 @_ZNK18OpenImageIO_v2_6_09ImageSpec11pixel_bytesEb(ptr noundef nonnull align 8 dereferenceable(160) %call, i1 noundef zeroext false) #3
  %call3 = call noundef i32 @_ZNK18OpenImageIO_v2_6_03ROI5widthEv(ptr noundef nonnull align 4 dereferenceable(32) %roi) #3
  %conv = sext i32 %call3 to i64
  %mul = mul i64 %call2, %conv
  store i64 %mul, ptr %size, align 8
  %zbegin = getelementptr inbounds %"struct.OpenImageIO_v2_6_0::ROI", ptr %roi, i32 0, i32 4
  %2 = load i32, ptr %zbegin, align 8
  store i32 %2, ptr %z, align 4
  br label %for.cond

for.cond:                                         ; preds = %for.inc8, %entry
  %3 = load i32, ptr %z, align 4
  %zend = getelementptr inbounds %"struct.OpenImageIO_v2_6_0::ROI", ptr %roi, i32 0, i32 5
  %4 = load i32, ptr %zend, align 4
  %cmp = icmp slt i32 %3, %4
  br i1 %cmp, label %for.body, label %for.end10

for.body:                                         ; preds = %for.cond
  %ybegin = getelementptr inbounds %"struct.OpenImageIO_v2_6_0::ROI", ptr %roi, i32 0, i32 2
  %5 = load i32, ptr %ybegin, align 8
  store i32 %5, ptr %y, align 4
  br label %for.cond4

for.cond4:                                        ; preds = %for.inc, %for.body
  %6 = load i32, ptr %y, align 4
  %yend = getelementptr inbounds %"struct.OpenImageIO_v2_6_0::ROI", ptr %roi, i32 0, i32 3
  %7 = load i32, ptr %yend, align 4
  %cmp5 = icmp slt i32 %6, %7
  br i1 %cmp5, label %for.body6, label %for.end

for.body6:                                        ; preds = %for.cond4
  %8 = getelementptr inbounds %class.anon, ptr %this1, i32 0, i32 0
  %9 = load ptr, ptr %8, align 8
  %xbegin = getelementptr inbounds %"struct.OpenImageIO_v2_6_0::ROI", ptr %roi, i32 0, i32 0
  %10 = load i32, ptr %xbegin, align 8
  %11 = load i32, ptr %y, align 4
  %12 = load i32, ptr %z, align 4
  %call7 = call noundef ptr @_ZN18OpenImageIO_v2_6_08ImageBuf9pixeladdrEiiii(ptr noundef nonnull align 8 dereferenceable(16) %9, i32 noundef %10, i32 noundef %11, i32 noundef %12, i32 noundef 0)
  %13 = load i64, ptr %size, align 8
  call void @llvm.memset.p0.i64(ptr align 1 %call7, i8 0, i64 %13, i1 false)
  br label %for.inc

for.inc:                                          ; preds = %for.body6
  %14 = load i32, ptr %y, align 4
  %inc = add nsw i32 %14, 1
  store i32 %inc, ptr %y, align 4
  br label %for.cond4, !llvm.loop !202

for.end:                                          ; preds = %for.cond4
  br label %for.inc8

for.inc8:                                         ; preds = %for.end
  %15 = load i32, ptr %z, align 4
  %inc9 = add nsw i32 %15, 1
  store i32 %inc9, ptr %z, align 4
  br label %for.cond, !llvm.loop !203

for.end10:                                        ; preds = %for.cond
  ret void
}

; Function Attrs: mustprogress nounwind uwtable
define linkonce_odr noundef ptr @_ZNKSt9_Any_data9_M_accessEv(ptr noundef nonnull align 8 dereferenceable(16) %this) #4 comdat align 2 {
entry:
  %this.addr = alloca ptr, align 8
  store ptr %this, ptr %this.addr, align 8
  %this1 = load ptr, ptr %this.addr, align 8
  %arrayidx = getelementptr inbounds [16 x i8], ptr %this1, i64 0, i64 0
  ret ptr %arrayidx
}

; Function Attrs: mustprogress uwtable
define internal void @"_ZSt13__invoke_implIvRZN18OpenImageIO_v2_6_012ImageBufAlgo4zeroERNS0_8ImageBufENS0_3ROIEiE3$_0JS4_EET_St14__invoke_otherOT0_DpOT1_"(ptr noundef nonnull align 8 dereferenceable(8) %__f, ptr noundef nonnull align 4 dereferenceable(32) %__args) #6 {
entry:
  %__f.addr = alloca ptr, align 8
  %__args.addr = alloca ptr, align 8
  %agg.tmp = alloca %"struct.OpenImageIO_v2_6_0::ROI", align 8
  store ptr %__f, ptr %__f.addr, align 8
  store ptr %__args, ptr %__args.addr, align 8
  %0 = load ptr, ptr %__f.addr, align 8
  %1 = load ptr, ptr %__args.addr, align 8
  call void @llvm.memcpy.p0.p0.i64(ptr align 4 %agg.tmp, ptr align 4 %1, i64 32, i1 false)
  call void @"_ZZN18OpenImageIO_v2_6_012ImageBufAlgo4zeroERNS_8ImageBufENS_3ROIEiENK3$_0clES3_"(ptr noundef nonnull align 8 dereferenceable(8) %0, ptr noundef byval(%"struct.OpenImageIO_v2_6_0::ROI") align 8 %agg.tmp)
  ret void
}

; Function Attrs: mustprogress nounwind uwtable
define internal noundef nonnull align 8 dereferenceable(8) ptr @"_ZNKSt9_Any_data9_M_accessIZN18OpenImageIO_v2_6_012ImageBufAlgo4zeroERNS1_8ImageBufENS1_3ROIEiE3$_0EERKT_v"(ptr noundef nonnull align 8 dereferenceable(16) %this) #4 align 2 {
entry:
  %this.addr = alloca ptr, align 8
  store ptr %this, ptr %this.addr, align 8
  %this1 = load ptr, ptr %this.addr, align 8
  %call = call noundef ptr @_ZNKSt9_Any_data9_M_accessEv(ptr noundef nonnull align 8 dereferenceable(16) %this1) #3
  ret ptr %call
}

; Function Attrs: mustprogress uwtable
define internal void @"_ZSt10__invoke_rIvRZN18OpenImageIO_v2_6_012ImageBufAlgo4zeroERNS0_8ImageBufENS0_3ROIEiE3$_0JS4_EENSt9enable_ifIX16is_invocable_r_vIT_T0_DpT1_EES8_E4typeEOS9_DpOSA_"(ptr noundef nonnull align 8 dereferenceable(8) %__fn, ptr noundef nonnull align 4 dereferenceable(32) %__args) #6 {
entry:
  %__fn.addr = alloca ptr, align 8
  %__args.addr = alloca ptr, align 8
  store ptr %__fn, ptr %__fn.addr, align 8
  store ptr %__args, ptr %__args.addr, align 8
  %0 = load ptr, ptr %__fn.addr, align 8
  %1 = load ptr, ptr %__args.addr, align 8
  call void @"_ZSt13__invoke_implIvRZN18OpenImageIO_v2_6_012ImageBufAlgo4zeroERNS0_8ImageBufENS0_3ROIEiE3$_0JS4_EET_St14__invoke_otherOT0_DpOT1_"(ptr noundef nonnull align 8 dereferenceable(8) %0, ptr noundef nonnull align 4 dereferenceable(32) %1)
  ret void
}

; Function Attrs: mustprogress nounwind uwtable
define internal noundef ptr @"_ZNSt14_Function_base13_Base_managerIZN18OpenImageIO_v2_6_012ImageBufAlgo4zeroERNS1_8ImageBufENS1_3ROIEiE3$_0E14_M_get_pointerERKSt9_Any_data"(ptr noundef nonnull align 8 dereferenceable(16) %__source) #4 align 2 {
entry:
  %__source.addr = alloca ptr, align 8
  %__f = alloca ptr, align 8
  store ptr %__source, ptr %__source.addr, align 8
  %0 = load ptr, ptr %__source.addr, align 8
  %call = call noundef nonnull align 8 dereferenceable(8) ptr @"_ZNKSt9_Any_data9_M_accessIZN18OpenImageIO_v2_6_012ImageBufAlgo4zeroERNS1_8ImageBufENS1_3ROIEiE3$_0EERKT_v"(ptr noundef nonnull align 8 dereferenceable(16) %0) #3
  store ptr %call, ptr %__f, align 8
  %1 = load ptr, ptr %__f, align 8
  ret ptr %1
}

; Function Attrs: mustprogress uwtable
define internal void @"_ZNSt17_Function_handlerIFvN18OpenImageIO_v2_6_03ROIEEZNS0_12ImageBufAlgo4zeroERNS0_8ImageBufES1_iE3$_0E9_M_invokeERKSt9_Any_dataOS1_"(ptr noundef nonnull align 8 dereferenceable(16) %__functor, ptr noundef nonnull align 4 dereferenceable(32) %__args) #6 align 2 {
entry:
  %__functor.addr = alloca ptr, align 8
  %__args.addr = alloca ptr, align 8
  store ptr %__functor, ptr %__functor.addr, align 8
  store ptr %__args, ptr %__args.addr, align 8
  %0 = load ptr, ptr %__functor.addr, align 8
  %call = call noundef ptr @"_ZNSt14_Function_base13_Base_managerIZN18OpenImageIO_v2_6_012ImageBufAlgo4zeroERNS1_8ImageBufENS1_3ROIEiE3$_0E14_M_get_pointerERKSt9_Any_data"(ptr noundef nonnull align 8 dereferenceable(16) %0) #3
  %1 = load ptr, ptr %__args.addr, align 8
  call void @"_ZSt10__invoke_rIvRZN18OpenImageIO_v2_6_012ImageBufAlgo4zeroERNS0_8ImageBufENS0_3ROIEiE3$_0JS4_EENSt9enable_ifIX16is_invocable_r_vIT_T0_DpT1_EES8_E4typeEOS9_DpOSA_"(ptr noundef nonnull align 8 dereferenceable(8) %call, ptr noundef nonnull align 4 dereferenceable(32) %1)
  ret void
}