; Function Attrs: mustprogress uwtable
define internal void @"_ZNSt17_Function_handlerIFvN18OpenImageIO_v2_6_03ROIEEZNS0_12ImageBufAlgo4zeroERNS0_8ImageBufES1_iE3$_0E9_M_invokeERKSt9_Any_dataOS1_"(ptr nocapture noundef nonnull readonly align 8 dereferenceable(16) %__functor, ptr nocapture noundef nonnull readonly align 4 dereferenceable(32) %__args) #5 align 2 {
entry:
  %agg.tmp.sroa.0.0.copyload.i.i = load i32, ptr %__args, align 4
  %agg.tmp.sroa.2.0.__args.sroa_idx.i.i = getelementptr inbounds i8, ptr %__args, i64 4
  %agg.tmp.sroa.2.0.copyload.i.i = load i32, ptr %agg.tmp.sroa.2.0.__args.sroa_idx.i.i, align 4
  %agg.tmp.sroa.3.0.__args.sroa_idx.i.i = getelementptr inbounds i8, ptr %__args, i64 8
  %agg.tmp.sroa.3.0.copyload.i.i = load i32, ptr %agg.tmp.sroa.3.0.__args.sroa_idx.i.i, align 4
  %agg.tmp.sroa.4.0.__args.sroa_idx.i.i = getelementptr inbounds i8, ptr %__args, i64 12
  %agg.tmp.sroa.4.0.copyload.i.i = load i32, ptr %agg.tmp.sroa.4.0.__args.sroa_idx.i.i, align 4
  %agg.tmp.sroa.5.0.__args.sroa_idx.i.i = getelementptr inbounds i8, ptr %__args, i64 16
  %agg.tmp.sroa.5.0.copyload.i.i = load i32, ptr %agg.tmp.sroa.5.0.__args.sroa_idx.i.i, align 4
  %agg.tmp.sroa.6.0.__args.sroa_idx.i.i = getelementptr inbounds i8, ptr %__args, i64 20
  %agg.tmp.sroa.6.0.copyload.i.i = load i32, ptr %agg.tmp.sroa.6.0.__args.sroa_idx.i.i, align 4
  %0 = load ptr, ptr %__functor, align 8
  %call.i.i.i = tail call noundef nonnull align 8 dereferenceable(160) ptr @_ZNK18OpenImageIO_v2_6_08ImageBuf4specEv(ptr noundef nonnull align 8 dereferenceable(16) %0)
  %call2.i.i.i = tail call noundef i64 @_ZNK18OpenImageIO_v2_6_09ImageSpec11pixel_bytesEb(ptr noundef nonnull align 8 dereferenceable(160) %call.i.i.i, i1 noundef zeroext false) #23
  %sub.i.i.i.i = sub nsw i32 %agg.tmp.sroa.2.0.copyload.i.i, %agg.tmp.sroa.0.0.copyload.i.i
  %conv.i.i.i = sext i32 %sub.i.i.i.i to i64
  %mul.i.i.i = mul i64 %call2.i.i.i, %conv.i.i.i
  %cmp7.i.i.i = icmp slt i32 %agg.tmp.sroa.5.0.copyload.i.i, %agg.tmp.sroa.6.0.copyload.i.i
  %cmp55.i.i.i = icmp slt i32 %agg.tmp.sroa.3.0.copyload.i.i, %agg.tmp.sroa.4.0.copyload.i.i
  %or.cond.i.i = select i1 %cmp7.i.i.i, i1 %cmp55.i.i.i, i1 false
  br i1 %or.cond.i.i, label %for.body.us.i.i.i, label %"_ZSt10__invoke_rIvRZN18OpenImageIO_v2_6_012ImageBufAlgo4zeroERNS0_8ImageBufENS0_3ROIEiE3$_0JS4_EENSt9enable_ifIX16is_invocable_r_vIT_T0_DpT1_EES8_E4typeEOS9_DpOSA_.exit"

for.body.us.i.i.i:                                ; preds = %entry, %for.cond4.for.inc8_crit_edge.us.i.i.i
  %z.08.us.i.i.i = phi i32 [ %inc9.us.i.i.i, %for.cond4.for.inc8_crit_edge.us.i.i.i ], [ %agg.tmp.sroa.5.0.copyload.i.i, %entry ]
  br label %for.body6.us.i.i.i

for.body6.us.i.i.i:                               ; preds = %for.body6.us.i.i.i, %for.body.us.i.i.i
  %y.06.us.i.i.i = phi i32 [ %agg.tmp.sroa.3.0.copyload.i.i, %for.body.us.i.i.i ], [ %inc.us.i.i.i, %for.body6.us.i.i.i ]
  %1 = load ptr, ptr %__functor, align 8
  %call7.us.i.i.i = tail call noundef ptr @_ZN18OpenImageIO_v2_6_08ImageBuf9pixeladdrEiiii(ptr noundef nonnull align 8 dereferenceable(16) %1, i32 noundef %agg.tmp.sroa.0.0.copyload.i.i, i32 noundef %y.06.us.i.i.i, i32 noundef %z.08.us.i.i.i, i32 noundef 0)
  tail call void @llvm.memset.p0.i64(ptr align 1 %call7.us.i.i.i, i8 0, i64 %mul.i.i.i, i1 false)
  %inc.us.i.i.i = add i32 %y.06.us.i.i.i, 1
  %exitcond.not.i.i.i = icmp eq i32 %inc.us.i.i.i, %agg.tmp.sroa.4.0.copyload.i.i
  br i1 %exitcond.not.i.i.i, label %for.cond4.for.inc8_crit_edge.us.i.i.i, label %for.body6.us.i.i.i, !llvm.loop !346

for.cond4.for.inc8_crit_edge.us.i.i.i:            ; preds = %for.body6.us.i.i.i
  %inc9.us.i.i.i = add i32 %z.08.us.i.i.i, 1
  %exitcond10.not.i.i.i = icmp eq i32 %inc9.us.i.i.i, %agg.tmp.sroa.6.0.copyload.i.i
  br i1 %exitcond10.not.i.i.i, label %"_ZSt10__invoke_rIvRZN18OpenImageIO_v2_6_012ImageBufAlgo4zeroERNS0_8ImageBufENS0_3ROIEiE3$_0JS4_EENSt9enable_ifIX16is_invocable_r_vIT_T0_DpT1_EES8_E4typeEOS9_DpOSA_.exit", label %for.body.us.i.i.i, !llvm.loop !347

"_ZSt10__invoke_rIvRZN18OpenImageIO_v2_6_012ImageBufAlgo4zeroERNS0_8ImageBufENS0_3ROIEiE3$_0JS4_EENSt9enable_ifIX16is_invocable_r_vIT_T0_DpT1_EES8_E4typeEOS9_DpOSA_.exit": ; preds = %for.cond4.for.inc8_crit_edge.us.i.i.i, %entry
  ret void
}